; Function Attrs: mustprogress uwtable
define void @_ZNK5faiss14ParameterSpace20set_index_parametersEPNS_5IndexEm(ptr noundef nonnull align 8 dereferenceable(64) %0, ptr noundef %1, i64 noundef %2) local_unnamed_addr #0 align 2 {
  %4 = getelementptr inbounds i8, ptr %0, i64 8
  %5 = getelementptr inbounds i8, ptr %0, i64 16
  %6 = load ptr, ptr %5, align 8
  %7 = load ptr, ptr %4, align 8
  %.not = icmp eq ptr %6, %7
  br i1 %.not, label %._crit_edge, label %.lr.ph

.lr.ph:                                           ; preds = %3, %.lr.ph
  %indvars.iv = phi i64 [ %indvars.iv.next, %.lr.ph ], [ 0, %3 ]
  %8 = phi ptr [ %26, %.lr.ph ], [ %7, %3 ]
  %.015 = phi i64 [ %19, %.lr.ph ], [ %2, %3 ]
  %9 = getelementptr inbounds %"struct.faiss::ParameterRange", ptr %8, i64 %indvars.iv
  %10 = getelementptr inbounds i8, ptr %9, i64 32
  %11 = getelementptr inbounds i8, ptr %9, i64 40
  %12 = load ptr, ptr %11, align 8
  %13 = load ptr, ptr %10, align 8
  %14 = ptrtoint ptr %12 to i64
  %15 = ptrtoint ptr %13 to i64
  %16 = sub i64 %14, %15
  %17 = ashr exact i64 %16, 3
  %18 = urem i64 %.015, %17
  %19 = udiv i64 %.015, %17
  %20 = getelementptr inbounds double, ptr %13, i64 %18
  %21 = load double, ptr %20, align 8
  %22 = load ptr, ptr %0, align 8
  %23 = getelementptr inbounds i8, ptr %22, i64 8
  %24 = load ptr, ptr %23, align 8
  tail call void %24(ptr noundef nonnull align 8 dereferenceable(64) %0, ptr noundef %1, ptr noundef nonnull align 8 dereferenceable(32) %9, double noundef %21)
  %indvars.iv.next = add nuw nsw i64 %indvars.iv, 1
  %25 = load ptr, ptr %5, align 8
  %26 = load ptr, ptr %4, align 8
  %27 = ptrtoint ptr %25 to i64
  %28 = ptrtoint ptr %26 to i64
  %29 = sub i64 %27, %28
  %30 = sdiv exact i64 %29, 56
  %31 = icmp ugt i64 %30, %indvars.iv.next
  br i1 %31, label %.lr.ph, label %._crit_edge, !llvm.loop !55

._crit_edge:                                      ; preds = %.lr.ph, %3
  ret void
}